target datalayout = "e-m:e-p270:32:32-p271:32:32-p272:64:64-i64:64-i128:128-f80:128-n8:16:32:64-S128"
target triple = "x86_64-pc-linux-gnu"

%"struct.icu_77::RCEBuffer" = type { [16 x %struct.RCEI], ptr, i32, i32 }
%struct.RCEI = type { i32, i32, i32 }

; Function Attrs: inlinehint mustprogress nounwind uwtable
define internal noundef signext i8 @_ZL9U_FAILURE10UErrorCode(i32 noundef %0) #4 {
  %2 = alloca i32, align 4
  store i32 %0, ptr %2, align 4, !tbaa !16
  %3 = load i32, ptr %2, align 4, !tbaa !16
  %4 = icmp sgt i32 %3, 0
  %5 = zext i1 %4 to i8
  ret i8 %5
}

; Function Attrs: mustprogress uwtable
define void @_ZN6icu_779RCEBuffer3putEjiiR10UErrorCode(ptr noundef nonnull align 8 dereferenceable(208) %0, i32 noundef %1, i32 noundef %2, i32 noundef %3, ptr noundef nonnull align 4 dereferenceable(4) %4) #3 align 2 {
  %6 = alloca ptr, align 8
  %7 = alloca i32, align 4
  %8 = alloca i32, align 4
  %9 = alloca i32, align 4
  %10 = alloca ptr, align 8
  %11 = alloca ptr, align 8
  %12 = alloca i32, align 4
  store ptr %0, ptr %6, align 8, !tbaa !3
  store i32 %1, ptr %7, align 4, !tbaa !14
  store i32 %2, ptr %8, align 4, !tbaa !14
  store i32 %3, ptr %9, align 4, !tbaa !14
  store ptr %4, ptr %10, align 8, !tbaa !15
  %13 = load ptr, ptr %6, align 8
  %14 = load ptr, ptr %10, align 8, !tbaa !15
  %15 = load i32, ptr %14, align 4, !tbaa !16
  %16 = call noundef signext i8 @_ZL9U_FAILURE10UErrorCode(i32 noundef %15)
  %17 = icmp ne i8 %16, 0
  br i1 %17, label %18, label %19

18:                                               ; preds = %5
  br label %92

19:                                               ; preds = %5
  %20 = getelementptr inbounds nuw %"struct.icu_77::RCEBuffer", ptr %13, i32 0, i32 2
  %21 = load i32, ptr %20, align 8, !tbaa !12
  %22 = getelementptr inbounds nuw %"struct.icu_77::RCEBuffer", ptr %13, i32 0, i32 3
  %23 = load i32, ptr %22, align 4, !tbaa !13
  %24 = icmp sge i32 %21, %23
  br i1 %24, label %25, label %64

25:                                               ; preds = %19
  call void @llvm.lifetime.start.p0(i64 8, ptr %11) #11
  %26 = getelementptr inbounds nuw %"struct.icu_77::RCEBuffer", ptr %13, i32 0, i32 3
  %27 = load i32, ptr %26, align 4, !tbaa !13
  %28 = add nsw i32 %27, 8
  %29 = sext i32 %28 to i64
  %30 = mul i64 %29, 12
  %31 = call noalias ptr @uprv_malloc_77(i64 noundef %30) #12
  store ptr %31, ptr %11, align 8, !tbaa !18
  %32 = load ptr, ptr %11, align 8, !tbaa !18
  %33 = icmp eq ptr %32, null
  br i1 %33, label %34, label %36

34:                                               ; preds = %25
  %35 = load ptr, ptr %10, align 8, !tbaa !15
  store i32 7, ptr %35, align 4, !tbaa !16
  store i32 1, ptr %12, align 4
  br label %61

36:                                               ; preds = %25
  br label %37

37:                                               ; preds = %36
  %38 = load ptr, ptr %11, align 8, !tbaa !18
  %39 = getelementptr inbounds nuw %"struct.icu_77::RCEBuffer", ptr %13, i32 0, i32 1
  %40 = load ptr, ptr %39, align 8, !tbaa !8
  %41 = getelementptr inbounds nuw %"struct.icu_77::RCEBuffer", ptr %13, i32 0, i32 3
  %42 = load i32, ptr %41, align 4, !tbaa !13
  %43 = sext i32 %42 to i64
  %44 = mul i64 %43, 12
  call void @llvm.memcpy.p0.p0.i64(ptr align 1 %38, ptr align 1 %40, i64 %44, i1 false)
  br label %45

45:                                               ; preds = %37
  br label %46

46:                                               ; preds = %45
  %47 = getelementptr inbounds nuw %"struct.icu_77::RCEBuffer", ptr %13, i32 0, i32 1
  %48 = load ptr, ptr %47, align 8, !tbaa !8
  %49 = getelementptr inbounds nuw %"struct.icu_77::RCEBuffer", ptr %13, i32 0, i32 0
  %50 = getelementptr inbounds [16 x %struct.RCEI], ptr %49, i64 0, i64 0
  %51 = icmp ne ptr %48, %50
  br i1 %51, label %52, label %55

52:                                               ; preds = %46
  %53 = getelementptr inbounds nuw %"struct.icu_77::RCEBuffer", ptr %13, i32 0, i32 1
  %54 = load ptr, ptr %53, align 8, !tbaa !8
  call void @uprv_free_77(ptr noundef %54)
  br label %55

55:                                               ; preds = %52, %46
  %56 = load ptr, ptr %11, align 8, !tbaa !18
  %57 = getelementptr inbounds nuw %"struct.icu_77::RCEBuffer", ptr %13, i32 0, i32 1
  store ptr %56, ptr %57, align 8, !tbaa !8
  %58 = getelementptr inbounds nuw %"struct.icu_77::RCEBuffer", ptr %13, i32 0, i32 3
  %59 = load i32, ptr %58, align 4, !tbaa !13
  %60 = add nsw i32 %59, 8
  store i32 %60, ptr %58, align 4, !tbaa !13
  store i32 0, ptr %12, align 4
  br label %61

61:                                               ; preds = %55, %34
  call void @llvm.lifetime.end.p0(i64 8, ptr %11) #11
  %62 = load i32, ptr %12, align 4
  switch i32 %62, label %93 [
    i32 0, label %63
    i32 1, label %92
  ]

63:                                               ; preds = %61
  br label %64

64:                                               ; preds = %63, %19
  %65 = load i32, ptr %7, align 4, !tbaa !14
  %66 = getelementptr inbounds nuw %"struct.icu_77::RCEBuffer", ptr %13, i32 0, i32 1
  %67 = load ptr, ptr %66, align 8, !tbaa !8
  %68 = getelementptr inbounds nuw %"struct.icu_77::RCEBuffer", ptr %13, i32 0, i32 2
  %69 = load i32, ptr %68, align 8, !tbaa !12
  %70 = sext i32 %69 to i64
  %71 = getelementptr inbounds %struct.RCEI, ptr %67, i64 %70
  %72 = getelementptr inbounds nuw %struct.RCEI, ptr %71, i32 0, i32 0
  store i32 %65, ptr %72, align 4, !tbaa !19
  %73 = load i32, ptr %8, align 4, !tbaa !14
  %74 = getelementptr inbounds nuw %"struct.icu_77::RCEBuffer", ptr %13, i32 0, i32 1
  %75 = load ptr, ptr %74, align 8, !tbaa !8
  %76 = getelementptr inbounds nuw %"struct.icu_77::RCEBuffer", ptr %13, i32 0, i32 2
  %77 = load i32, ptr %76, align 8, !tbaa !12
  %78 = sext i32 %77 to i64
  %79 = getelementptr inbounds %struct.RCEI, ptr %75, i64 %78
  %80 = getelementptr inbounds nuw %struct.RCEI, ptr %79, i32 0, i32 1
  store i32 %73, ptr %80, align 4, !tbaa !21
  %81 = load i32, ptr %9, align 4, !tbaa !14
  %82 = getelementptr inbounds nuw %"struct.icu_77::RCEBuffer", ptr %13, i32 0, i32 1
  %83 = load ptr, ptr %82, align 8, !tbaa !8
  %84 = getelementptr inbounds nuw %"struct.icu_77::RCEBuffer", ptr %13, i32 0, i32 2
  %85 = load i32, ptr %84, align 8, !tbaa !12
  %86 = sext i32 %85 to i64
  %87 = getelementptr inbounds %struct.RCEI, ptr %83, i64 %86
  %88 = getelementptr inbounds nuw %struct.RCEI, ptr %87, i32 0, i32 2
  store i32 %81, ptr %88, align 4, !tbaa !22
  %89 = getelementptr inbounds nuw %"struct.icu_77::RCEBuffer", ptr %13, i32 0, i32 2
  %90 = load i32, ptr %89, align 8, !tbaa !12
  %91 = add nsw i32 %90, 1
  store i32 %91, ptr %89, align 8, !tbaa !12
  br label %92

92:                                               ; preds = %64, %61, %18
  ret void

93:                                               ; preds = %61
  unreachable
}